target datalayout = "e-m:e-p270:32:32-p271:32:32-p272:64:64-i64:64-i128:128-f80:128-n8:16:32:64-S128"
target triple = "x86_64-pc-linux-gnu"

; Function Attrs: inlinehint nounwind uwtable
define internal void @idct4row(ptr noundef %0) #2 {
  %2 = alloca ptr, align 8
  %3 = alloca i32, align 4
  %4 = alloca i32, align 4
  %5 = alloca i32, align 4
  %6 = alloca i32, align 4
  %7 = alloca i32, align 4
  %8 = alloca i32, align 4
  %9 = alloca i32, align 4
  %10 = alloca i32, align 4
  store ptr %0, ptr %2, align 8, !tbaa !11
  call void @llvm.lifetime.start.p0(i64 4, ptr %3) #4
  call void @llvm.lifetime.start.p0(i64 4, ptr %4) #4
  call void @llvm.lifetime.start.p0(i64 4, ptr %5) #4
  call void @llvm.lifetime.start.p0(i64 4, ptr %6) #4
  call void @llvm.lifetime.start.p0(i64 4, ptr %7) #4
  call void @llvm.lifetime.start.p0(i64 4, ptr %8) #4
  call void @llvm.lifetime.start.p0(i64 4, ptr %9) #4
  call void @llvm.lifetime.start.p0(i64 4, ptr %10) #4
  %11 = load ptr, ptr %2, align 8, !tbaa !11
  %12 = getelementptr inbounds i16, ptr %11, i64 0
  %13 = load i16, ptr %12, align 2, !tbaa !19
  %14 = sext i16 %13 to i32
  store i32 %14, ptr %7, align 4, !tbaa !13
  %15 = load ptr, ptr %2, align 8, !tbaa !11
  %16 = getelementptr inbounds i16, ptr %15, i64 1
  %17 = load i16, ptr %16, align 2, !tbaa !19
  %18 = sext i16 %17 to i32
  store i32 %18, ptr %8, align 4, !tbaa !13
  %19 = load ptr, ptr %2, align 8, !tbaa !11
  %20 = getelementptr inbounds i16, ptr %19, i64 2
  %21 = load i16, ptr %20, align 2, !tbaa !19
  %22 = sext i16 %21 to i32
  store i32 %22, ptr %9, align 4, !tbaa !13
  %23 = load ptr, ptr %2, align 8, !tbaa !11
  %24 = getelementptr inbounds i16, ptr %23, i64 3
  %25 = load i16, ptr %24, align 2, !tbaa !19
  %26 = sext i16 %25 to i32
  store i32 %26, ptr %10, align 4, !tbaa !13
  %27 = load i32, ptr %7, align 4, !tbaa !13
  %28 = load i32, ptr %9, align 4, !tbaa !13
  %29 = add nsw i32 %27, %28
  %30 = mul nsw i32 %29, 23170
  %31 = add nsw i32 %30, 1024
  store i32 %31, ptr %3, align 4, !tbaa !13
  %32 = load i32, ptr %7, align 4, !tbaa !13
  %33 = load i32, ptr %9, align 4, !tbaa !13
  %34 = sub nsw i32 %32, %33
  %35 = mul nsw i32 %34, 23170
  %36 = add nsw i32 %35, 1024
  store i32 %36, ptr %5, align 4, !tbaa !13
  %37 = load i32, ptr %8, align 4, !tbaa !13
  %38 = mul nsw i32 %37, 30274
  %39 = load i32, ptr %10, align 4, !tbaa !13
  %40 = mul nsw i32 %39, 12540
  %41 = add nsw i32 %38, %40
  store i32 %41, ptr %4, align 4, !tbaa !13
  %42 = load i32, ptr %8, align 4, !tbaa !13
  %43 = mul nsw i32 %42, 12540
  %44 = load i32, ptr %10, align 4, !tbaa !13
  %45 = mul nsw i32 %44, 30274
  %46 = sub nsw i32 %43, %45
  store i32 %46, ptr %6, align 4, !tbaa !13
  %47 = load i32, ptr %3, align 4, !tbaa !13
  %48 = load i32, ptr %4, align 4, !tbaa !13
  %49 = add i32 %47, %48
  %50 = lshr i32 %49, 11
  %51 = trunc i32 %50 to i16
  %52 = load ptr, ptr %2, align 8, !tbaa !11
  %53 = getelementptr inbounds i16, ptr %52, i64 0
  store i16 %51, ptr %53, align 2, !tbaa !19
  %54 = load i32, ptr %5, align 4, !tbaa !13
  %55 = load i32, ptr %6, align 4, !tbaa !13
  %56 = add i32 %54, %55
  %57 = lshr i32 %56, 11
  %58 = trunc i32 %57 to i16
  %59 = load ptr, ptr %2, align 8, !tbaa !11
  %60 = getelementptr inbounds i16, ptr %59, i64 1
  store i16 %58, ptr %60, align 2, !tbaa !19
  %61 = load i32, ptr %5, align 4, !tbaa !13
  %62 = load i32, ptr %6, align 4, !tbaa !13
  %63 = sub i32 %61, %62
  %64 = lshr i32 %63, 11
  %65 = trunc i32 %64 to i16
  %66 = load ptr, ptr %2, align 8, !tbaa !11
  %67 = getelementptr inbounds i16, ptr %66, i64 2
  store i16 %65, ptr %67, align 2, !tbaa !19
  %68 = load i32, ptr %3, align 4, !tbaa !13
  %69 = load i32, ptr %4, align 4, !tbaa !13
  %70 = sub i32 %68, %69
  %71 = lshr i32 %70, 11
  %72 = trunc i32 %71 to i16
  %73 = load ptr, ptr %2, align 8, !tbaa !11
  %74 = getelementptr inbounds i16, ptr %73, i64 3
  store i16 %72, ptr %74, align 2, !tbaa !19
  call void @llvm.lifetime.end.p0(i64 4, ptr %10) #4
  call void @llvm.lifetime.end.p0(i64 4, ptr %9) #4
  call void @llvm.lifetime.end.p0(i64 4, ptr %8) #4
  call void @llvm.lifetime.end.p0(i64 4, ptr %7) #4
  call void @llvm.lifetime.end.p0(i64 4, ptr %6) #4
  call void @llvm.lifetime.end.p0(i64 4, ptr %5) #4
  call void @llvm.lifetime.end.p0(i64 4, ptr %4) #4
  call void @llvm.lifetime.end.p0(i64 4, ptr %3) #4
  ret void
}

; Function Attrs: nounwind uwtable
define void @ff_simple_idct48_add(ptr noundef %0, i64 noundef %1, ptr noundef %2) #0 {
  %4 = alloca ptr, align 8
  %5 = alloca i64, align 8
  %6 = alloca ptr, align 8
  %7 = alloca i32, align 4
  store ptr %0, ptr %4, align 8, !tbaa !4
  store i64 %1, ptr %5, align 8, !tbaa !9
  store ptr %2, ptr %6, align 8, !tbaa !11
  call void @llvm.lifetime.start.p0(i64 4, ptr %7) #4
  store i32 0, ptr %7, align 4, !tbaa !13
  br label %8

8:                                                ; preds = %17, %3
  %9 = load i32, ptr %7, align 4, !tbaa !13
  %10 = icmp slt i32 %9, 8
  br i1 %10, label %11, label %20

11:                                               ; preds = %8
  %12 = load ptr, ptr %6, align 8, !tbaa !11
  %13 = load i32, ptr %7, align 4, !tbaa !13
  %14 = mul nsw i32 %13, 8
  %15 = sext i32 %14 to i64
  %16 = getelementptr inbounds i16, ptr %12, i64 %15
  call void @idct4row(ptr noundef %16)
  br label %17

17:                                               ; preds = %11
  %18 = load i32, ptr %7, align 4, !tbaa !13
  %19 = add nsw i32 %18, 1
  store i32 %19, ptr %7, align 4, !tbaa !13
  br label %8, !llvm.loop !46

20:                                               ; preds = %8
  store i32 0, ptr %7, align 4, !tbaa !13
  br label %21

21:                                               ; preds = %34, %20
  %22 = load i32, ptr %7, align 4, !tbaa !13
  %23 = icmp slt i32 %22, 4
  br i1 %23, label %24, label %37

24:                                               ; preds = %21
  %25 = load ptr, ptr %4, align 8, !tbaa !4
  %26 = load i32, ptr %7, align 4, !tbaa !13
  %27 = sext i32 %26 to i64
  %28 = getelementptr inbounds i8, ptr %25, i64 %27
  %29 = load i64, ptr %5, align 8, !tbaa !9
  %30 = load ptr, ptr %6, align 8, !tbaa !11
  %31 = load i32, ptr %7, align 4, !tbaa !13
  %32 = sext i32 %31 to i64
  %33 = getelementptr inbounds i16, ptr %30, i64 %32
  call void @idctSparseColAdd_int16_8bit(ptr noundef %28, i64 noundef %29, ptr noundef %33)
  br label %34

34:                                               ; preds = %24
  %35 = load i32, ptr %7, align 4, !tbaa !13
  %36 = add nsw i32 %35, 1
  store i32 %36, ptr %7, align 4, !tbaa !13
  br label %21, !llvm.loop !47

37:                                               ; preds = %21
  call void @llvm.lifetime.end.p0(i64 4, ptr %7) #4
  ret void
}