; Function Attrs: nofree norecurse nosync nounwind memory(readwrite, inaccessiblemem: none) uwtable
define void @ff_simple_idct48_add(ptr noundef captures(none) %0, i64 noundef %1, ptr noundef captures(none) %2) local_unnamed_addr #2 {
  br label %4

4:                                                ; preds = %3, %4
  %indvars.iv = phi i64 [ 0, %3 ], [ %indvars.iv.next, %4 ]
  %.idx = shl nuw nsw i64 %indvars.iv, 4
  %5 = getelementptr inbounds nuw i8, ptr %2, i64 %.idx
  %6 = load i16, ptr %5, align 2, !tbaa !6
  %7 = sext i16 %6 to i32
  %8 = getelementptr inbounds nuw i8, ptr %5, i64 2
  %9 = load i16, ptr %8, align 2, !tbaa !6
  %10 = sext i16 %9 to i32
  %11 = getelementptr inbounds nuw i8, ptr %5, i64 4
  %12 = load i16, ptr %11, align 2, !tbaa !6
  %13 = sext i16 %12 to i32
  %14 = getelementptr inbounds nuw i8, ptr %5, i64 6
  %15 = load i16, ptr %14, align 2, !tbaa !6
  %16 = sext i16 %15 to i32
  %17 = add nsw i32 %13, %7
  %18 = mul nsw i32 %17, 23170
  %19 = add nsw i32 %18, 1024
  %20 = sub nsw i32 %7, %13
  %21 = mul nsw i32 %20, 23170
  %22 = add nsw i32 %21, 1024
  %23 = mul nsw i32 %10, 30274
  %24 = mul nsw i32 %16, 12540
  %25 = add nsw i32 %24, %23
  %26 = mul nsw i32 %10, 12540
  %.neg.i = mul nsw i32 %16, -30274
  %27 = add nsw i32 %.neg.i, %26
  %28 = add i32 %19, %25
  %29 = lshr i32 %28, 11
  %30 = trunc i32 %29 to i16
  store i16 %30, ptr %5, align 2, !tbaa !6
  %31 = add i32 %22, %27
  %32 = lshr i32 %31, 11
  %33 = trunc i32 %32 to i16
  store i16 %33, ptr %8, align 2, !tbaa !6
  %34 = sub i32 %22, %27
  %35 = lshr i32 %34, 11
  %36 = trunc i32 %35 to i16
  store i16 %36, ptr %11, align 2, !tbaa !6
  %37 = sub i32 %19, %25
  %38 = lshr i32 %37, 11
  %39 = trunc i32 %38 to i16
  store i16 %39, ptr %14, align 2, !tbaa !6
  %indvars.iv.next = add nuw nsw i64 %indvars.iv, 1
  %exitcond.not = icmp eq i64 %indvars.iv.next, 8
  br i1 %exitcond.not, label %.preheader, label %4, !llvm.loop !37

.preheader:                                       ; preds = %4, %.preheader
  %indvars.iv13 = phi i64 [ %indvars.iv.next14, %.preheader ], [ 0, %4 ]
  %40 = getelementptr inbounds nuw i8, ptr %0, i64 %indvars.iv13
  %41 = getelementptr inbounds nuw i16, ptr %2, i64 %indvars.iv13
  tail call fastcc void @idctSparseColAdd_int16_8bit(ptr noundef %40, i64 noundef %1, ptr noundef %41)
  %indvars.iv.next14 = add nuw nsw i64 %indvars.iv13, 1
  %exitcond16.not = icmp eq i64 %indvars.iv.next14, 4
  br i1 %exitcond16.not, label %42, label %.preheader, !llvm.loop !38

42:                                               ; preds = %.preheader
  ret void
}